target datalayout = "e-m:e-p270:32:32-p271:32:32-p272:64:64-i64:64-i128:128-f80:128-n8:16:32:64-S128"
target triple = "x86_64-pc-linux-gnu"

%struct.Mini_Lut_t_ = type { i32, i32, i32, i32, ptr, ptr }

; Function Attrs: nounwind uwtable
define internal void @Mini_LutGrow(ptr noundef %0, i32 noundef %1) #0 {
  %3 = alloca ptr, align 8
  %4 = alloca i32, align 4
  store ptr %0, ptr %3, align 8, !tbaa !81
  store i32 %1, ptr %4, align 4, !tbaa !12
  %5 = load ptr, ptr %3, align 8, !tbaa !81
  %6 = getelementptr inbounds nuw %struct.Mini_Lut_t_, ptr %5, i32 0, i32 0
  %7 = load i32, ptr %6, align 8, !tbaa !113
  %8 = load i32, ptr %4, align 4, !tbaa !12
  %9 = icmp sge i32 %7, %8
  br i1 %9, label %10, label %11

10:                                               ; preds = %2
  br label %75

11:                                               ; preds = %2
  %12 = load ptr, ptr %3, align 8, !tbaa !81
  %13 = getelementptr inbounds nuw %struct.Mini_Lut_t_, ptr %12, i32 0, i32 4
  %14 = load ptr, ptr %13, align 8, !tbaa !92
  %15 = icmp ne ptr %14, null
  br i1 %15, label %16, label %28

16:                                               ; preds = %11
  %17 = load ptr, ptr %3, align 8, !tbaa !81
  %18 = getelementptr inbounds nuw %struct.Mini_Lut_t_, ptr %17, i32 0, i32 4
  %19 = load ptr, ptr %18, align 8, !tbaa !92
  %20 = load i32, ptr %4, align 4, !tbaa !12
  %21 = load ptr, ptr %3, align 8, !tbaa !81
  %22 = getelementptr inbounds nuw %struct.Mini_Lut_t_, ptr %21, i32 0, i32 3
  %23 = load i32, ptr %22, align 4, !tbaa !87
  %24 = mul nsw i32 %20, %23
  %25 = sext i32 %24 to i64
  %26 = mul i64 4, %25
  %27 = call ptr @realloc(ptr noundef %19, i64 noundef %26) #17
  br label %37

28:                                               ; preds = %11
  %29 = load i32, ptr %4, align 4, !tbaa !12
  %30 = load ptr, ptr %3, align 8, !tbaa !81
  %31 = getelementptr inbounds nuw %struct.Mini_Lut_t_, ptr %30, i32 0, i32 3
  %32 = load i32, ptr %31, align 4, !tbaa !87
  %33 = mul nsw i32 %29, %32
  %34 = sext i32 %33 to i64
  %35 = mul i64 4, %34
  %36 = call noalias ptr @malloc(i64 noundef %35) #15
  br label %37

37:                                               ; preds = %28, %16
  %38 = phi ptr [ %27, %16 ], [ %36, %28 ]
  %39 = load ptr, ptr %3, align 8, !tbaa !81
  %40 = getelementptr inbounds nuw %struct.Mini_Lut_t_, ptr %39, i32 0, i32 4
  store ptr %38, ptr %40, align 8, !tbaa !92
  %41 = load ptr, ptr %3, align 8, !tbaa !81
  %42 = getelementptr inbounds nuw %struct.Mini_Lut_t_, ptr %41, i32 0, i32 5
  %43 = load ptr, ptr %42, align 8, !tbaa !93
  %44 = icmp ne ptr %43, null
  br i1 %44, label %45, label %58

45:                                               ; preds = %37
  %46 = load ptr, ptr %3, align 8, !tbaa !81
  %47 = getelementptr inbounds nuw %struct.Mini_Lut_t_, ptr %46, i32 0, i32 5
  %48 = load ptr, ptr %47, align 8, !tbaa !93
  %49 = load i32, ptr %4, align 4, !tbaa !12
  %50 = load ptr, ptr %3, align 8, !tbaa !81
  %51 = getelementptr inbounds nuw %struct.Mini_Lut_t_, ptr %50, i32 0, i32 3
  %52 = load i32, ptr %51, align 4, !tbaa !87
  %53 = call i32 @Mini_LutWordNum(i32 noundef %52)
  %54 = mul nsw i32 %49, %53
  %55 = sext i32 %54 to i64
  %56 = mul i64 4, %55
  %57 = call ptr @realloc(ptr noundef %48, i64 noundef %56) #17
  br label %68

58:                                               ; preds = %37
  %59 = load i32, ptr %4, align 4, !tbaa !12
  %60 = load ptr, ptr %3, align 8, !tbaa !81
  %61 = getelementptr inbounds nuw %struct.Mini_Lut_t_, ptr %60, i32 0, i32 3
  %62 = load i32, ptr %61, align 4, !tbaa !87
  %63 = call i32 @Mini_LutWordNum(i32 noundef %62)
  %64 = mul nsw i32 %59, %63
  %65 = sext i32 %64 to i64
  %66 = mul i64 4, %65
  %67 = call noalias ptr @malloc(i64 noundef %66) #15
  br label %68

68:                                               ; preds = %58, %45
  %69 = phi ptr [ %57, %45 ], [ %67, %58 ]
  %70 = load ptr, ptr %3, align 8, !tbaa !81
  %71 = getelementptr inbounds nuw %struct.Mini_Lut_t_, ptr %70, i32 0, i32 5
  store ptr %69, ptr %71, align 8, !tbaa !93
  %72 = load i32, ptr %4, align 4, !tbaa !12
  %73 = load ptr, ptr %3, align 8, !tbaa !81
  %74 = getelementptr inbounds nuw %struct.Mini_Lut_t_, ptr %73, i32 0, i32 0
  store i32 %72, ptr %74, align 8, !tbaa !113
  br label %75

75:                                               ; preds = %68, %10
  ret void
}

; Function Attrs: nounwind uwtable
define internal i32 @Mini_LutWordNum(i32 noundef %0) #0 {
  %2 = alloca i32, align 4
  store i32 %0, ptr %2, align 4, !tbaa !12
  %3 = load i32, ptr %2, align 4, !tbaa !12
  %4 = icmp sgt i32 %3, 5
  br i1 %4, label %5, label %9

5:                                                ; preds = %1
  %6 = load i32, ptr %2, align 4, !tbaa !12
  %7 = sub nsw i32 %6, 5
  %8 = shl i32 1, %7
  br label %10

9:                                                ; preds = %1
  br label %10

10:                                               ; preds = %9, %5
  %11 = phi i32 [ %8, %5 ], [ 1, %9 ]
  ret i32 %11
}

; Function Attrs: nounwind uwtable
define internal void @Mini_LutPush(ptr noundef %0, i32 noundef %1, ptr noundef %2, ptr noundef %3) #0 {
  %5 = alloca ptr, align 8
  %6 = alloca i32, align 4
  %7 = alloca ptr, align 8
  %8 = alloca ptr, align 8
  %9 = alloca i32, align 4
  %10 = alloca i32, align 4
  store ptr %0, ptr %5, align 8, !tbaa !81
  store i32 %1, ptr %6, align 4, !tbaa !12
  store ptr %2, ptr %7, align 8, !tbaa !83
  store ptr %3, ptr %8, align 8, !tbaa !83
  call void @llvm.lifetime.start.p0(i64 4, ptr %9) #13
  call void @llvm.lifetime.start.p0(i64 4, ptr %10) #13
  %11 = load ptr, ptr %5, align 8, !tbaa !81
  %12 = getelementptr inbounds nuw %struct.Mini_Lut_t_, ptr %11, i32 0, i32 3
  %13 = load i32, ptr %12, align 4, !tbaa !87
  %14 = call i32 @Mini_LutWordNum(i32 noundef %13)
  store i32 %14, ptr %10, align 4, !tbaa !12
  %15 = load ptr, ptr %5, align 8, !tbaa !81
  %16 = getelementptr inbounds nuw %struct.Mini_Lut_t_, ptr %15, i32 0, i32 1
  %17 = load i32, ptr %16, align 4, !tbaa !91
  %18 = load ptr, ptr %5, align 8, !tbaa !81
  %19 = getelementptr inbounds nuw %struct.Mini_Lut_t_, ptr %18, i32 0, i32 0
  %20 = load i32, ptr %19, align 8, !tbaa !113
  %21 = icmp eq i32 %17, %20
  br i1 %21, label %22, label %36

22:                                               ; preds = %4
  %23 = load ptr, ptr %5, align 8, !tbaa !81
  %24 = getelementptr inbounds nuw %struct.Mini_Lut_t_, ptr %23, i32 0, i32 0
  %25 = load i32, ptr %24, align 8, !tbaa !113
  %26 = icmp slt i32 %25, 255
  br i1 %26, label %27, label %29

27:                                               ; preds = %22
  %28 = load ptr, ptr %5, align 8, !tbaa !81
  call void @Mini_LutGrow(ptr noundef %28, i32 noundef 255)
  br label %35

29:                                               ; preds = %22
  %30 = load ptr, ptr %5, align 8, !tbaa !81
  %31 = load ptr, ptr %5, align 8, !tbaa !81
  %32 = getelementptr inbounds nuw %struct.Mini_Lut_t_, ptr %31, i32 0, i32 0
  %33 = load i32, ptr %32, align 8, !tbaa !113
  %34 = mul nsw i32 2, %33
  call void @Mini_LutGrow(ptr noundef %30, i32 noundef %34)
  br label %35

35:                                               ; preds = %29, %27
  br label %36

36:                                               ; preds = %35, %4
  store i32 0, ptr %9, align 4, !tbaa !12
  br label %37

37:                                               ; preds = %42, %36
  %38 = load i32, ptr %9, align 4, !tbaa !12
  %39 = load i32, ptr %6, align 4, !tbaa !12
  %40 = icmp slt i32 %38, %39
  br i1 %40, label %41, label %45

41:                                               ; preds = %37
  br label %42

42:                                               ; preds = %41
  %43 = load i32, ptr %9, align 4, !tbaa !12
  %44 = add nsw i32 %43, 1
  store i32 %44, ptr %9, align 4, !tbaa !12
  br label %37, !llvm.loop !196

45:                                               ; preds = %37
  store i32 0, ptr %9, align 4, !tbaa !12
  br label %46

46:                                               ; preds = %70, %45
  %47 = load i32, ptr %9, align 4, !tbaa !12
  %48 = load i32, ptr %6, align 4, !tbaa !12
  %49 = icmp slt i32 %47, %48
  br i1 %49, label %50, label %73

50:                                               ; preds = %46
  %51 = load ptr, ptr %7, align 8, !tbaa !83
  %52 = load i32, ptr %9, align 4, !tbaa !12
  %53 = sext i32 %52 to i64
  %54 = getelementptr inbounds i32, ptr %51, i64 %53
  %55 = load i32, ptr %54, align 4, !tbaa !12
  %56 = load ptr, ptr %5, align 8, !tbaa !81
  %57 = getelementptr inbounds nuw %struct.Mini_Lut_t_, ptr %56, i32 0, i32 4
  %58 = load ptr, ptr %57, align 8, !tbaa !92
  %59 = load ptr, ptr %5, align 8, !tbaa !81
  %60 = getelementptr inbounds nuw %struct.Mini_Lut_t_, ptr %59, i32 0, i32 3
  %61 = load i32, ptr %60, align 4, !tbaa !87
  %62 = load ptr, ptr %5, align 8, !tbaa !81
  %63 = getelementptr inbounds nuw %struct.Mini_Lut_t_, ptr %62, i32 0, i32 1
  %64 = load i32, ptr %63, align 4, !tbaa !91
  %65 = mul nsw i32 %61, %64
  %66 = load i32, ptr %9, align 4, !tbaa !12
  %67 = add nsw i32 %65, %66
  %68 = sext i32 %67 to i64
  %69 = getelementptr inbounds i32, ptr %58, i64 %68
  store i32 %55, ptr %69, align 4, !tbaa !12
  br label %70

70:                                               ; preds = %50
  %71 = load i32, ptr %9, align 4, !tbaa !12
  %72 = add nsw i32 %71, 1
  store i32 %72, ptr %9, align 4, !tbaa !12
  br label %46, !llvm.loop !197

73:                                               ; preds = %46
  br label %74

74:                                               ; preds = %95, %73
  %75 = load i32, ptr %9, align 4, !tbaa !12
  %76 = load ptr, ptr %5, align 8, !tbaa !81
  %77 = getelementptr inbounds nuw %struct.Mini_Lut_t_, ptr %76, i32 0, i32 3
  %78 = load i32, ptr %77, align 4, !tbaa !87
  %79 = icmp slt i32 %75, %78
  br i1 %79, label %80, label %98

80:                                               ; preds = %74
  %81 = load ptr, ptr %5, align 8, !tbaa !81
  %82 = getelementptr inbounds nuw %struct.Mini_Lut_t_, ptr %81, i32 0, i32 4
  %83 = load ptr, ptr %82, align 8, !tbaa !92
  %84 = load ptr, ptr %5, align 8, !tbaa !81
  %85 = getelementptr inbounds nuw %struct.Mini_Lut_t_, ptr %84, i32 0, i32 3
  %86 = load i32, ptr %85, align 4, !tbaa !87
  %87 = load ptr, ptr %5, align 8, !tbaa !81
  %88 = getelementptr inbounds nuw %struct.Mini_Lut_t_, ptr %87, i32 0, i32 1
  %89 = load i32, ptr %88, align 4, !tbaa !91
  %90 = mul nsw i32 %86, %89
  %91 = load i32, ptr %9, align 4, !tbaa !12
  %92 = add nsw i32 %90, %91
  %93 = sext i32 %92 to i64
  %94 = getelementptr inbounds i32, ptr %83, i64 %93
  store i32 2147483647, ptr %94, align 4, !tbaa !12
  br label %95

95:                                               ; preds = %80
  %96 = load i32, ptr %9, align 4, !tbaa !12
  %97 = add nsw i32 %96, 1
  store i32 %97, ptr %9, align 4, !tbaa !12
  br label %74, !llvm.loop !198

98:                                               ; preds = %74
  store i32 0, ptr %9, align 4, !tbaa !12
  br label %99

99:                                               ; preds = %127, %98
  %100 = load i32, ptr %9, align 4, !tbaa !12
  %101 = load i32, ptr %10, align 4, !tbaa !12
  %102 = icmp slt i32 %100, %101
  br i1 %102, label %103, label %130

103:                                              ; preds = %99
  %104 = load ptr, ptr %8, align 8, !tbaa !83
  %105 = icmp ne ptr %104, null
  br i1 %105, label %106, label %112

106:                                              ; preds = %103
  %107 = load ptr, ptr %8, align 8, !tbaa !83
  %108 = load i32, ptr %9, align 4, !tbaa !12
  %109 = sext i32 %108 to i64
  %110 = getelementptr inbounds i32, ptr %107, i64 %109
  %111 = load i32, ptr %110, align 4, !tbaa !12
  br label %113

112:                                              ; preds = %103
  br label %113

113:                                              ; preds = %112, %106
  %114 = phi i32 [ %111, %106 ], [ 0, %112 ]
  %115 = load ptr, ptr %5, align 8, !tbaa !81
  %116 = getelementptr inbounds nuw %struct.Mini_Lut_t_, ptr %115, i32 0, i32 5
  %117 = load ptr, ptr %116, align 8, !tbaa !93
  %118 = load i32, ptr %10, align 4, !tbaa !12
  %119 = load ptr, ptr %5, align 8, !tbaa !81
  %120 = getelementptr inbounds nuw %struct.Mini_Lut_t_, ptr %119, i32 0, i32 1
  %121 = load i32, ptr %120, align 4, !tbaa !91
  %122 = mul nsw i32 %118, %121
  %123 = load i32, ptr %9, align 4, !tbaa !12
  %124 = add nsw i32 %122, %123
  %125 = sext i32 %124 to i64
  %126 = getelementptr inbounds i32, ptr %117, i64 %125
  store i32 %114, ptr %126, align 4, !tbaa !12
  br label %127

127:                                              ; preds = %113
  %128 = load i32, ptr %9, align 4, !tbaa !12
  %129 = add nsw i32 %128, 1
  store i32 %129, ptr %9, align 4, !tbaa !12
  br label %99, !llvm.loop !199

130:                                              ; preds = %99
  %131 = load ptr, ptr %5, align 8, !tbaa !81
  %132 = getelementptr inbounds nuw %struct.Mini_Lut_t_, ptr %131, i32 0, i32 1
  %133 = load i32, ptr %132, align 4, !tbaa !91
  %134 = add nsw i32 %133, 1
  store i32 %134, ptr %132, align 4, !tbaa !91
  call void @llvm.lifetime.end.p0(i64 4, ptr %10) #13
  call void @llvm.lifetime.end.p0(i64 4, ptr %9) #13
  ret void
}