; Function Attrs: nounwind uwtable
define internal fastcc void @Mini_LutPush(ptr noundef captures(none) %0, i32 noundef %1, ptr noundef readonly captures(none) %2, ptr noundef readonly %3) unnamed_addr #2 {
  %5 = getelementptr inbounds nuw i8, ptr %0, i64 12
  %6 = load i32, ptr %5, align 4, !tbaa !71
  %7 = icmp sgt i32 %6, 5
  %8 = add nsw i32 %6, -5
  %9 = shl nuw i32 1, %8
  %10 = select i1 %7, i32 %9, i32 1
  %11 = getelementptr inbounds nuw i8, ptr %0, i64 4
  %12 = load i32, ptr %11, align 4, !tbaa !73
  %13 = load i32, ptr %0, align 8, !tbaa !88
  %14 = icmp eq i32 %12, %13
  br i1 %14, label %15, label %Mini_LutGrow.exit44

15:                                               ; preds = %4
  %16 = icmp slt i32 %12, 255
  br i1 %16, label %17, label %42

17:                                               ; preds = %15
  %18 = getelementptr inbounds nuw i8, ptr %0, i64 16
  %19 = load ptr, ptr %18, align 8, !tbaa !74
  %.not19.i = icmp eq ptr %19, null
  %20 = mul nsw i32 %6, 255
  %21 = sext i32 %20 to i64
  %22 = shl nsw i64 %21, 2
  br i1 %.not19.i, label %25, label %23

23:                                               ; preds = %17
  %24 = tail call ptr @realloc(ptr noundef nonnull %19, i64 noundef %22) #27
  %.pre60 = load i32, ptr %5, align 4, !tbaa !71
  br label %27

25:                                               ; preds = %17
  %26 = tail call noalias ptr @malloc(i64 noundef %22) #26
  br label %27

27:                                               ; preds = %25, %23
  %28 = phi i32 [ %.pre60, %23 ], [ %6, %25 ]
  %29 = phi ptr [ %24, %23 ], [ %26, %25 ]
  store ptr %29, ptr %18, align 8, !tbaa !74
  %30 = getelementptr inbounds nuw i8, ptr %0, i64 24
  %31 = load ptr, ptr %30, align 8, !tbaa !75
  %.not20.i = icmp eq ptr %31, null
  %32 = tail call i32 @llvm.smax.i32(i32 %28, i32 5)
  %33 = add nsw i32 %32, -5
  %34 = shl i32 255, %33
  %35 = sext i32 %34 to i64
  %36 = shl nsw i64 %35, 2
  br i1 %.not20.i, label %39, label %37

37:                                               ; preds = %27
  %38 = tail call ptr @realloc(ptr noundef nonnull %31, i64 noundef %36) #27
  br label %Mini_LutGrow.exit

39:                                               ; preds = %27
  %40 = tail call noalias ptr @malloc(i64 noundef %36) #26
  br label %Mini_LutGrow.exit

Mini_LutGrow.exit:                                ; preds = %37, %39
  %41 = phi ptr [ %38, %37 ], [ %40, %39 ]
  store ptr %41, ptr %30, align 8, !tbaa !75
  br label %Mini_LutGrow.exit44.sink.split

42:                                               ; preds = %15
  %43 = shl nuw nsw i32 %12, 1
  %44 = getelementptr inbounds nuw i8, ptr %0, i64 16
  %45 = load ptr, ptr %44, align 8, !tbaa !74
  %.not19.i42 = icmp eq ptr %45, null
  %46 = mul nsw i32 %43, %6
  %47 = sext i32 %46 to i64
  %48 = shl nsw i64 %47, 2
  br i1 %.not19.i42, label %51, label %49

49:                                               ; preds = %42
  %50 = tail call ptr @realloc(ptr noundef nonnull %45, i64 noundef %48) #27
  %.pre = load i32, ptr %5, align 4, !tbaa !71
  br label %53

51:                                               ; preds = %42
  %52 = tail call noalias ptr @malloc(i64 noundef %48) #26
  br label %53

53:                                               ; preds = %51, %49
  %54 = phi i32 [ %.pre, %49 ], [ %6, %51 ]
  %55 = phi ptr [ %50, %49 ], [ %52, %51 ]
  store ptr %55, ptr %44, align 8, !tbaa !74
  %56 = getelementptr inbounds nuw i8, ptr %0, i64 24
  %57 = load ptr, ptr %56, align 8, !tbaa !75
  %.not20.i43 = icmp eq ptr %57, null
  %58 = tail call i32 @llvm.smax.i32(i32 %54, i32 5)
  %59 = add nsw i32 %58, -5
  %60 = shl i32 %43, %59
  %61 = sext i32 %60 to i64
  %62 = shl nsw i64 %61, 2
  br i1 %.not20.i43, label %65, label %63

63:                                               ; preds = %53
  %64 = tail call ptr @realloc(ptr noundef nonnull %57, i64 noundef %62) #27
  br label %67

65:                                               ; preds = %53
  %66 = tail call noalias ptr @malloc(i64 noundef %62) #26
  br label %67

67:                                               ; preds = %65, %63
  %68 = phi ptr [ %64, %63 ], [ %66, %65 ]
  store ptr %68, ptr %56, align 8, !tbaa !75
  br label %Mini_LutGrow.exit44.sink.split

Mini_LutGrow.exit44.sink.split:                   ; preds = %Mini_LutGrow.exit, %67
  %.sink = phi i32 [ %43, %67 ], [ 255, %Mini_LutGrow.exit ]
  store i32 %.sink, ptr %0, align 8, !tbaa !88
  br label %Mini_LutGrow.exit44

Mini_LutGrow.exit44:                              ; preds = %Mini_LutGrow.exit44.sink.split, %4
  %69 = icmp sgt i32 %1, 0
  br i1 %69, label %.lr.ph, label %.preheader45

.lr.ph:                                           ; preds = %Mini_LutGrow.exit44
  %70 = getelementptr inbounds nuw i8, ptr %0, i64 16
  %71 = load ptr, ptr %70, align 8, !tbaa !74
  %wide.trip.count = zext nneg i32 %1 to i64
  br label %76

.preheader45:                                     ; preds = %76, %Mini_LutGrow.exit44
  %.1.lcssa = phi i32 [ 0, %Mini_LutGrow.exit44 ], [ %1, %76 ]
  %72 = load i32, ptr %5, align 4, !tbaa !71
  %73 = icmp slt i32 %.1.lcssa, %72
  br i1 %73, label %.lr.ph49, label %.preheader

.lr.ph49:                                         ; preds = %.preheader45
  %74 = getelementptr inbounds nuw i8, ptr %0, i64 16
  %75 = load ptr, ptr %74, align 8, !tbaa !74
  br label %96

76:                                               ; preds = %.lr.ph, %76
  %indvars.iv = phi i64 [ 0, %.lr.ph ], [ %indvars.iv.next, %76 ]
  %77 = getelementptr inbounds nuw i32, ptr %2, i64 %indvars.iv
  %78 = load i32, ptr %77, align 4, !tbaa !10
  %79 = load i32, ptr %5, align 4, !tbaa !71
  %80 = load i32, ptr %11, align 4, !tbaa !73
  %81 = mul nsw i32 %80, %79
  %82 = trunc nuw nsw i64 %indvars.iv to i32
  %83 = add nsw i32 %81, %82
  %84 = sext i32 %83 to i64
  %85 = getelementptr inbounds i32, ptr %71, i64 %84
  store i32 %78, ptr %85, align 4, !tbaa !10
  %indvars.iv.next = add nuw nsw i64 %indvars.iv, 1
  %exitcond.not = icmp eq i64 %indvars.iv.next, %wide.trip.count
  br i1 %exitcond.not, label %.preheader45, label %76, !llvm.loop !176

.preheader:                                       ; preds = %96, %.preheader45
  %86 = icmp sgt i32 %10, 0
  br i1 %86, label %.lr.ph51, label %._crit_edge

.lr.ph51:                                         ; preds = %.preheader
  %.not = icmp eq ptr %3, null
  %87 = getelementptr inbounds nuw i8, ptr %0, i64 24
  %88 = load ptr, ptr %87, align 8, !tbaa !75
  %89 = select i1 %7, i32 %8, i32 0
  br i1 %.not, label %.lr.ph51.split.us, label %.lr.ph51.split.preheader

.lr.ph51.split.preheader:                         ; preds = %.lr.ph51
  %wide.trip.count57 = zext nneg i32 %10 to i64
  br label %.lr.ph51.split

.lr.ph51.split.us:                                ; preds = %.lr.ph51, %.lr.ph51.split.us
  %.350.us = phi i32 [ %95, %.lr.ph51.split.us ], [ 0, %.lr.ph51 ]
  %90 = load i32, ptr %11, align 4, !tbaa !73
  %91 = shl i32 %90, %89
  %92 = add nsw i32 %91, %.350.us
  %93 = sext i32 %92 to i64
  %94 = getelementptr inbounds i32, ptr %88, i64 %93
  store i32 0, ptr %94, align 4, !tbaa !10
  %95 = add nuw nsw i32 %.350.us, 1
  %exitcond59.not = icmp eq i32 %95, %10
  br i1 %exitcond59.not, label %._crit_edge, label %.lr.ph51.split.us, !llvm.loop !177

96:                                               ; preds = %.lr.ph49, %96
  %97 = phi i32 [ %72, %.lr.ph49 ], [ %104, %96 ]
  %.248 = phi i32 [ %.1.lcssa, %.lr.ph49 ], [ %103, %96 ]
  %98 = load i32, ptr %11, align 4, !tbaa !73
  %99 = mul nsw i32 %98, %97
  %100 = add nsw i32 %99, %.248
  %101 = sext i32 %100 to i64
  %102 = getelementptr inbounds i32, ptr %75, i64 %101
  store i32 2147483647, ptr %102, align 4, !tbaa !10
  %103 = add nuw nsw i32 %.248, 1
  %104 = load i32, ptr %5, align 4, !tbaa !71
  %105 = icmp slt i32 %103, %104
  br i1 %105, label %96, label %.preheader, !llvm.loop !178

.lr.ph51.split:                                   ; preds = %.lr.ph51.split.preheader, %.lr.ph51.split
  %indvars.iv54 = phi i64 [ 0, %.lr.ph51.split.preheader ], [ %indvars.iv.next55, %.lr.ph51.split ]
  %106 = getelementptr inbounds nuw i32, ptr %3, i64 %indvars.iv54
  %107 = load i32, ptr %106, align 4, !tbaa !10
  %108 = load i32, ptr %11, align 4, !tbaa !73
  %109 = shl i32 %108, %89
  %110 = trunc nuw nsw i64 %indvars.iv54 to i32
  %111 = add nsw i32 %109, %110
  %112 = sext i32 %111 to i64
  %113 = getelementptr inbounds i32, ptr %88, i64 %112
  store i32 %107, ptr %113, align 4, !tbaa !10
  %indvars.iv.next55 = add nuw nsw i64 %indvars.iv54, 1
  %exitcond58.not = icmp eq i64 %indvars.iv.next55, %wide.trip.count57
  br i1 %exitcond58.not, label %._crit_edge, label %.lr.ph51.split, !llvm.loop !177

._crit_edge:                                      ; preds = %.lr.ph51.split, %.lr.ph51.split.us, %.preheader
  %114 = load i32, ptr %11, align 4, !tbaa !73
  %115 = add nsw i32 %114, 1
  store i32 %115, ptr %11, align 4, !tbaa !73
  ret void
}